target datalayout = "e-m:e-p270:32:32-p271:32:32-p272:64:64-i64:64-i128:128-f80:128-n8:16:32:64-S128"
target triple = "x86_64-pc-linux-gnu"

%struct.bignum_st = type opaque

@ossl_bn_inv_sqrt_2 = external constant %struct.bignum_st, align 1

; Function Attrs: nounwind uwtable
define i32 @ossl_rsa_check_prime_factor_range(ptr noundef %0, i32 noundef %1, ptr noundef %2) #0 {
  %4 = alloca i32, align 4
  %5 = alloca ptr, align 8
  %6 = alloca i32, align 4
  %7 = alloca ptr, align 8
  %8 = alloca i32, align 4
  %9 = alloca ptr, align 8
  %10 = alloca i32, align 4
  %11 = alloca i32, align 4
  store ptr %0, ptr %5, align 8, !tbaa !12
  store i32 %1, ptr %6, align 4, !tbaa !10
  store ptr %2, ptr %7, align 8, !tbaa !8
  call void @llvm.lifetime.start.p0(i64 4, ptr %8) #3
  store i32 0, ptr %8, align 4, !tbaa !10
  call void @llvm.lifetime.start.p0(i64 8, ptr %9) #3
  call void @llvm.lifetime.start.p0(i64 4, ptr %10) #3
  %12 = load i32, ptr %6, align 4, !tbaa !10
  %13 = ashr i32 %12, 1
  store i32 %13, ptr %6, align 4, !tbaa !10
  %14 = load i32, ptr %6, align 4, !tbaa !10
  %15 = call i32 @BN_num_bits(ptr noundef @ossl_bn_inv_sqrt_2)
  %16 = sub nsw i32 %14, %15
  store i32 %16, ptr %10, align 4, !tbaa !10
  %17 = load ptr, ptr %5, align 8, !tbaa !12
  %18 = call i32 @BN_num_bits(ptr noundef %17)
  %19 = load i32, ptr %6, align 4, !tbaa !10
  %20 = icmp ne i32 %18, %19
  br i1 %20, label %21, label %22

21:                                               ; preds = %3
  store i32 0, ptr %4, align 4
  store i32 1, ptr %11, align 4
  br label %64

22:                                               ; preds = %3
  %23 = load ptr, ptr %7, align 8, !tbaa !8
  call void @BN_CTX_start(ptr noundef %23)
  %24 = load ptr, ptr %7, align 8, !tbaa !8
  %25 = call ptr @BN_CTX_get(ptr noundef %24)
  store ptr %25, ptr %9, align 8, !tbaa !12
  %26 = load ptr, ptr %9, align 8, !tbaa !12
  %27 = icmp eq ptr %26, null
  br i1 %27, label %28, label %29

28:                                               ; preds = %22
  br label %61

29:                                               ; preds = %22
  %30 = load ptr, ptr %9, align 8, !tbaa !12
  %31 = call ptr @BN_copy(ptr noundef %30, ptr noundef @ossl_bn_inv_sqrt_2)
  %32 = icmp ne ptr %31, null
  br i1 %32, label %34, label %33

33:                                               ; preds = %29
  br label %61

34:                                               ; preds = %29
  %35 = load i32, ptr %10, align 4, !tbaa !10
  %36 = icmp sge i32 %35, 0
  br i1 %36, label %37, label %45

37:                                               ; preds = %34
  %38 = load ptr, ptr %9, align 8, !tbaa !12
  %39 = load ptr, ptr %9, align 8, !tbaa !12
  %40 = load i32, ptr %10, align 4, !tbaa !10
  %41 = call i32 @BN_lshift(ptr noundef %38, ptr noundef %39, i32 noundef %40)
  %42 = icmp ne i32 %41, 0
  br i1 %42, label %44, label %43

43:                                               ; preds = %37
  br label %61

44:                                               ; preds = %37
  br label %54

45:                                               ; preds = %34
  %46 = load ptr, ptr %9, align 8, !tbaa !12
  %47 = load ptr, ptr %9, align 8, !tbaa !12
  %48 = load i32, ptr %10, align 4, !tbaa !10
  %49 = sub nsw i32 0, %48
  %50 = call i32 @BN_rshift(ptr noundef %46, ptr noundef %47, i32 noundef %49)
  %51 = icmp ne i32 %50, 0
  br i1 %51, label %53, label %52

52:                                               ; preds = %45
  br label %61

53:                                               ; preds = %45
  br label %54

54:                                               ; preds = %53, %44
  %55 = load ptr, ptr %5, align 8, !tbaa !12
  %56 = load ptr, ptr %9, align 8, !tbaa !12
  %57 = call i32 @BN_cmp(ptr noundef %55, ptr noundef %56)
  %58 = icmp sle i32 %57, 0
  br i1 %58, label %59, label %60

59:                                               ; preds = %54
  br label %61

60:                                               ; preds = %54
  store i32 1, ptr %8, align 4, !tbaa !10
  br label %61

61:                                               ; preds = %60, %59, %52, %43, %33, %28
  %62 = load ptr, ptr %7, align 8, !tbaa !8
  call void @BN_CTX_end(ptr noundef %62)
  %63 = load i32, ptr %8, align 4, !tbaa !10
  store i32 %63, ptr %4, align 4
  store i32 1, ptr %11, align 4
  br label %64

64:                                               ; preds = %61, %21
  call void @llvm.lifetime.end.p0(i64 4, ptr %10) #3
  call void @llvm.lifetime.end.p0(i64 8, ptr %9) #3
  call void @llvm.lifetime.end.p0(i64 4, ptr %8) #3
  %65 = load i32, ptr %4, align 4
  ret i32 %65
}