; Function Attrs: nounwind uwtable
define range(i32 0, 2) i32 @ossl_rsa_check_prime_factor_range(ptr noundef %0, i32 noundef %1, ptr noundef %2) local_unnamed_addr #0 {
  %4 = ashr i32 %1, 1
  %5 = tail call i32 @BN_num_bits(ptr noundef nonnull @ossl_bn_inv_sqrt_2) #3
  %6 = sub nsw i32 %4, %5
  %7 = tail call i32 @BN_num_bits(ptr noundef %0) #3
  %.not = icmp eq i32 %7, %4
  br i1 %.not, label %8, label %24

8:                                                ; preds = %3
  tail call void @BN_CTX_start(ptr noundef %2) #3
  %9 = tail call ptr @BN_CTX_get(ptr noundef %2) #3
  %10 = icmp eq ptr %9, null
  br i1 %10, label %23, label %11

11:                                               ; preds = %8
  %12 = tail call ptr @BN_copy(ptr noundef nonnull %9, ptr noundef nonnull @ossl_bn_inv_sqrt_2) #3
  %.not22 = icmp eq ptr %12, null
  br i1 %.not22, label %23, label %13

13:                                               ; preds = %11
  %14 = icmp sgt i32 %6, -1
  br i1 %14, label %15, label %17

15:                                               ; preds = %13
  %16 = tail call i32 @BN_lshift(ptr noundef nonnull %9, ptr noundef nonnull %9, i32 noundef %6) #3
  %.not24 = icmp eq i32 %16, 0
  br i1 %.not24, label %23, label %20

17:                                               ; preds = %13
  %18 = sub nsw i32 0, %6
  %19 = tail call i32 @BN_rshift(ptr noundef nonnull %9, ptr noundef nonnull %9, i32 noundef %18) #3
  %.not23 = icmp eq i32 %19, 0
  br i1 %.not23, label %23, label %20

20:                                               ; preds = %17, %15
  %21 = tail call i32 @BN_cmp(ptr noundef %0, ptr noundef nonnull %9) #3
  %22 = icmp sgt i32 %21, 0
  %spec.select = zext i1 %22 to i32
  br label %23

23:                                               ; preds = %20, %17, %15, %11, %8
  %.019 = phi i32 [ 0, %8 ], [ 0, %15 ], [ 0, %17 ], [ 0, %11 ], [ %spec.select, %20 ]
  tail call void @BN_CTX_end(ptr noundef %2) #3
  br label %24

24:                                               ; preds = %3, %23
  %.0 = phi i32 [ %.019, %23 ], [ 0, %3 ]
  ret i32 %.0
}